target datalayout = "e-m:e-p270:32:32-p271:32:32-p272:64:64-i64:64-i128:128-f80:128-n8:16:32:64-S128"
target triple = "x86_64-pc-linux-gnu"

%struct.hwloc_topology = type { i32, i32, i32, ptr, ptr, i64, [20 x i32], [20 x i32], i64, i64, i32, ptr, i64, ptr, i64, [6 x %struct.hwloc_special_level_s], ptr, ptr, %struct.hwloc_binding_hooks, %struct.hwloc_topology_support, %struct.hwloc_infos_s, ptr, ptr, i32, ptr, ptr, i32, i32, ptr, i32, i32, ptr, i32, i32, i32, [5 x float], i32, ptr, ptr, i32, i32, ptr, i32, %struct.hwloc_numanode_attr_s, i32, i32, ptr, i64, i32, ptr, ptr, ptr }
%struct.hwloc_special_level_s = type { i32, ptr, ptr, ptr }
%struct.hwloc_binding_hooks = type { ptr, ptr, ptr, ptr, ptr, ptr, ptr, ptr, ptr, ptr, ptr, ptr, ptr, ptr, ptr, ptr, ptr, ptr, ptr, ptr, ptr, ptr, ptr, ptr }
%struct.hwloc_topology_support = type { ptr, ptr, ptr, ptr }
%struct.hwloc_infos_s = type { ptr, i32, i32 }
%struct.hwloc_numanode_attr_s = type { i64, i32, ptr }

; Function Attrs: nounwind uwtable
define i32 @hwloc_topology_set_flags(ptr noundef %0, i64 noundef %1) #0 {
  %3 = alloca i32, align 4
  %4 = alloca ptr, align 8
  %5 = alloca i64, align 8
  store ptr %0, ptr %4, align 8, !tbaa !3
  store i64 %1, ptr %5, align 8, !tbaa !36
  %6 = load ptr, ptr %4, align 8, !tbaa !3
  %7 = getelementptr inbounds nuw %struct.hwloc_topology, ptr %6, i32 0, i32 8
  %8 = load i64, ptr %7, align 8, !tbaa !86
  %9 = and i64 %8, 8
  %10 = icmp ne i64 %9, 0
  br i1 %10, label %13, label %11

11:                                               ; preds = %2
  %12 = call ptr @__errno_location() #16
  store i32 16, ptr %12, align 4, !tbaa !33
  store i32 -1, ptr %3, align 4
  br label %35

13:                                               ; preds = %2
  %14 = load i64, ptr %5, align 8, !tbaa !36
  %15 = and i64 %14, -1024
  %16 = icmp ne i64 %15, 0
  br i1 %16, label %17, label %19

17:                                               ; preds = %13
  %18 = call ptr @__errno_location() #16
  store i32 22, ptr %18, align 4, !tbaa !33
  store i32 -1, ptr %3, align 4
  br label %35

19:                                               ; preds = %13
  %20 = load i64, ptr %5, align 8, !tbaa !36
  %21 = and i64 %20, 18
  %22 = icmp eq i64 %21, 16
  br i1 %22, label %23, label %25

23:                                               ; preds = %19
  %24 = call ptr @__errno_location() #16
  store i32 22, ptr %24, align 4, !tbaa !33
  store i32 -1, ptr %3, align 4
  br label %35

25:                                               ; preds = %19
  %26 = load i64, ptr %5, align 8, !tbaa !36
  %27 = and i64 %26, 34
  %28 = icmp eq i64 %27, 32
  br i1 %28, label %29, label %31

29:                                               ; preds = %25
  %30 = call ptr @__errno_location() #16
  store i32 22, ptr %30, align 4, !tbaa !33
  store i32 -1, ptr %3, align 4
  br label %35

31:                                               ; preds = %25
  %32 = load i64, ptr %5, align 8, !tbaa !36
  %33 = load ptr, ptr %4, align 8, !tbaa !3
  %34 = getelementptr inbounds nuw %struct.hwloc_topology, ptr %33, i32 0, i32 5
  store i64 %32, ptr %34, align 8, !tbaa !88
  store i32 0, ptr %3, align 4
  br label %35

35:                                               ; preds = %31, %29, %23, %17, %11
  %36 = load i32, ptr %3, align 4
  ret i32 %36
}