; Function Attrs: mustprogress nofree nosync nounwind willreturn memory(write, argmem: readwrite, inaccessiblemem: none) uwtable
define range(i32 -1, 1) i32 @hwloc_topology_set_flags(ptr noundef captures(none) %0, i64 noundef %1) local_unnamed_addr #19 {
  %3 = getelementptr inbounds nuw i8, ptr %0, i64 200
  %4 = load i64, ptr %3, align 8, !tbaa !90
  %5 = and i64 %4, 8
  %.not = icmp eq i64 %5, 0
  br i1 %.not, label %6, label %8

6:                                                ; preds = %2
  %7 = tail call ptr @__errno_location() #37
  store i32 16, ptr %7, align 4, !tbaa !31
  br label %23

8:                                                ; preds = %2
  %.not6 = icmp ult i64 %1, 1024
  br i1 %.not6, label %11, label %9

9:                                                ; preds = %8
  %10 = tail call ptr @__errno_location() #37
  store i32 22, ptr %10, align 4, !tbaa !31
  br label %23

11:                                               ; preds = %8
  %12 = and i64 %1, 18
  %13 = icmp eq i64 %12, 16
  br i1 %13, label %14, label %16

14:                                               ; preds = %11
  %15 = tail call ptr @__errno_location() #37
  store i32 22, ptr %15, align 4, !tbaa !31
  br label %23

16:                                               ; preds = %11
  %17 = and i64 %1, 34
  %18 = icmp eq i64 %17, 32
  br i1 %18, label %19, label %21

19:                                               ; preds = %16
  %20 = tail call ptr @__errno_location() #37
  store i32 22, ptr %20, align 4, !tbaa !31
  br label %23

21:                                               ; preds = %16
  %22 = getelementptr inbounds nuw i8, ptr %0, i64 32
  store i64 %1, ptr %22, align 8, !tbaa !92
  br label %23

23:                                               ; preds = %21, %19, %14, %9, %6
  %.0 = phi i32 [ -1, %9 ], [ -1, %14 ], [ -1, %19 ], [ 0, %21 ], [ -1, %6 ]
  ret i32 %.0
}